; Function Attrs: mustprogress nofree norecurse nosync nounwind willreturn memory(argmem: write) uwtable
define internal void @tcp_ev_cons(ptr noundef writeonly captures(none) initializes((144, 145), (280, 281), (284, 290)) %0) #4 {
  %2 = getelementptr inbounds nuw i8, ptr %0, i64 144
  store i8 0, ptr %2, align 8, !tbaa !66
  %3 = getelementptr inbounds nuw i8, ptr %0, i64 280
  store i8 0, ptr %3, align 8, !tbaa !85
  %4 = getelementptr inbounds nuw i8, ptr %0, i64 284
  store i32 -1, ptr %4, align 4, !tbaa !46
  %5 = getelementptr inbounds nuw i8, ptr %0, i64 288
  store i16 0, ptr %5, align 8, !tbaa !54
  ret void
}